target datalayout = "e-m:e-p270:32:32-p271:32:32-p272:64:64-i64:64-i128:128-f80:128-n8:16:32:64-S128"
target triple = "x86_64-pc-linux-gnu"

%struct._XSettingsClient = type { ptr, i32, ptr, ptr, ptr, ptr, ptr, i64, i64, i64, i64, ptr }
%struct.anon.0 = type { ptr, ptr, i32, i32, i32, i32, ptr, i64, i64, i64, i32, ptr, i32, i32, i32, i32, i32, ptr, i32, i32, ptr, ptr, i32, i64, i64, ptr, ptr, ptr, ptr, i32, ptr, ptr, ptr, i32, i32, ptr, i64, i64, i32, i32, ptr, ptr, i32, ptr }
%struct.Screen = type { ptr, ptr, i64, i32, i32, i32, i32, i32, ptr, i32, ptr, ptr, i64, i64, i64, i32, i32, i32, i32, i64 }
%struct.XWindowAttributes = type { i32, i32, i32, i32, i32, i32, ptr, i64, i32, i32, i32, i32, i64, i64, i32, i64, i32, i32, i64, i64, i64, i32, ptr }

@.str = private unnamed_addr constant [15 x i8] c"_XSETTINGS_S%d\00", align 1
@.str.1 = private unnamed_addr constant [20 x i8] c"_XSETTINGS_SETTINGS\00", align 1
@.str.2 = private unnamed_addr constant [8 x i8] c"MANAGER\00", align 1
@X11_XInternAtom = external global ptr, align 8
@X11_XGetWindowAttributes = external global ptr, align 8
@X11_XSelectInput = external global ptr, align 8

; Function Attrs: nounwind uwtable
define internal void @add_events(ptr noundef %0, i64 noundef %1, i64 noundef %2) #0 {
  %4 = alloca ptr, align 8
  %5 = alloca i64, align 8
  %6 = alloca i64, align 8
  %7 = alloca %struct.XWindowAttributes, align 8
  store ptr %0, ptr %4, align 8
  store i64 %1, ptr %5, align 8
  store i64 %2, ptr %6, align 8
  call void @llvm.lifetime.start.p0(i64 136, ptr %7) #6
  %8 = load ptr, ptr @X11_XGetWindowAttributes, align 8
  %9 = load ptr, ptr %4, align 8
  %10 = load i64, ptr %5, align 8
  %11 = call i32 %8(ptr noundef %9, i64 noundef %10, ptr noundef %7)
  %12 = load ptr, ptr @X11_XSelectInput, align 8
  %13 = load ptr, ptr %4, align 8
  %14 = load i64, ptr %5, align 8
  %15 = getelementptr inbounds nuw %struct.XWindowAttributes, ptr %7, i32 0, i32 19
  %16 = load i64, ptr %15, align 8
  %17 = load i64, ptr %6, align 8
  %18 = or i64 %16, %17
  %19 = call i32 %12(ptr noundef %13, i64 noundef %14, i64 noundef %18)
  call void @llvm.lifetime.end.p0(i64 136, ptr %7) #6
  ret void
}

; Function Attrs: nounwind uwtable
define hidden ptr @xsettings_client_new_with_grab_funcs(ptr noundef %0, i32 noundef %1, ptr noundef %2, ptr noundef %3, ptr noundef %4, ptr noundef %5, ptr noundef %6) #0 {
  %8 = alloca ptr, align 8
  %9 = alloca ptr, align 8
  %10 = alloca i32, align 4
  %11 = alloca ptr, align 8
  %12 = alloca ptr, align 8
  %13 = alloca ptr, align 8
  %14 = alloca ptr, align 8
  %15 = alloca ptr, align 8
  %16 = alloca ptr, align 8
  %17 = alloca [256 x i8], align 16
  %18 = alloca [3 x ptr], align 16
  %19 = alloca [3 x i64], align 16
  %20 = alloca i32, align 4
  store ptr %0, ptr %9, align 8
  store i32 %1, ptr %10, align 4
  store ptr %2, ptr %11, align 8
  store ptr %3, ptr %12, align 8
  store ptr %4, ptr %13, align 8
  store ptr %5, ptr %14, align 8
  store ptr %6, ptr %15, align 8
  call void @llvm.lifetime.start.p0(i64 8, ptr %16) #6
  call void @llvm.lifetime.start.p0(i64 256, ptr %17) #6
  call void @llvm.lifetime.start.p0(i64 24, ptr %18) #6
  call void @llvm.lifetime.start.p0(i64 24, ptr %19) #6
  %21 = call noalias ptr @malloc(i64 noundef 96) #7
  store ptr %21, ptr %16, align 8
  %22 = load ptr, ptr %16, align 8
  %23 = icmp ne ptr %22, null
  br i1 %23, label %25, label %24

24:                                               ; preds = %7
  store ptr null, ptr %8, align 8
  store i32 1, ptr %20, align 4
  br label %120

25:                                               ; preds = %7
  %26 = load ptr, ptr %9, align 8
  %27 = load ptr, ptr %16, align 8
  %28 = getelementptr inbounds nuw %struct._XSettingsClient, ptr %27, i32 0, i32 0
  store ptr %26, ptr %28, align 8
  %29 = load i32, ptr %10, align 4
  %30 = load ptr, ptr %16, align 8
  %31 = getelementptr inbounds nuw %struct._XSettingsClient, ptr %30, i32 0, i32 1
  store i32 %29, ptr %31, align 8
  %32 = load ptr, ptr %11, align 8
  %33 = load ptr, ptr %16, align 8
  %34 = getelementptr inbounds nuw %struct._XSettingsClient, ptr %33, i32 0, i32 2
  store ptr %32, ptr %34, align 8
  %35 = load ptr, ptr %12, align 8
  %36 = load ptr, ptr %16, align 8
  %37 = getelementptr inbounds nuw %struct._XSettingsClient, ptr %36, i32 0, i32 3
  store ptr %35, ptr %37, align 8
  %38 = load ptr, ptr %13, align 8
  %39 = load ptr, ptr %16, align 8
  %40 = getelementptr inbounds nuw %struct._XSettingsClient, ptr %39, i32 0, i32 4
  store ptr %38, ptr %40, align 8
  %41 = load ptr, ptr %14, align 8
  %42 = load ptr, ptr %16, align 8
  %43 = getelementptr inbounds nuw %struct._XSettingsClient, ptr %42, i32 0, i32 5
  store ptr %41, ptr %43, align 8
  %44 = load ptr, ptr %15, align 8
  %45 = load ptr, ptr %16, align 8
  %46 = getelementptr inbounds nuw %struct._XSettingsClient, ptr %45, i32 0, i32 6
  store ptr %44, ptr %46, align 8
  %47 = load ptr, ptr %16, align 8
  %48 = getelementptr inbounds nuw %struct._XSettingsClient, ptr %47, i32 0, i32 7
  store i64 0, ptr %48, align 8
  %49 = load ptr, ptr %16, align 8
  %50 = getelementptr inbounds nuw %struct._XSettingsClient, ptr %49, i32 0, i32 11
  store ptr null, ptr %50, align 8
  %51 = getelementptr inbounds [256 x i8], ptr %17, i64 0, i64 0
  %52 = load i32, ptr %10, align 4
  %53 = call i32 (ptr, ptr, ...) @sprintf(ptr noundef %51, ptr noundef @.str, i32 noundef %52) #6
  %54 = getelementptr inbounds [256 x i8], ptr %17, i64 0, i64 0
  %55 = getelementptr inbounds [3 x ptr], ptr %18, i64 0, i64 0
  store ptr %54, ptr %55, align 16
  %56 = getelementptr inbounds [3 x ptr], ptr %18, i64 0, i64 1
  store ptr @.str.1, ptr %56, align 8
  %57 = getelementptr inbounds [3 x ptr], ptr %18, i64 0, i64 2
  store ptr @.str.2, ptr %57, align 16
  %58 = load ptr, ptr @X11_XInternAtom, align 8
  %59 = load ptr, ptr %9, align 8
  %60 = getelementptr inbounds [3 x ptr], ptr %18, i64 0, i64 0
  %61 = load ptr, ptr %60, align 16
  %62 = call i64 %58(ptr noundef %59, ptr noundef %61, i32 noundef 0)
  %63 = getelementptr inbounds [3 x i64], ptr %19, i64 0, i64 0
  store i64 %62, ptr %63, align 16
  %64 = load ptr, ptr @X11_XInternAtom, align 8
  %65 = load ptr, ptr %9, align 8
  %66 = getelementptr inbounds [3 x ptr], ptr %18, i64 0, i64 1
  %67 = load ptr, ptr %66, align 8
  %68 = call i64 %64(ptr noundef %65, ptr noundef %67, i32 noundef 0)
  %69 = getelementptr inbounds [3 x i64], ptr %19, i64 0, i64 1
  store i64 %68, ptr %69, align 8
  %70 = load ptr, ptr @X11_XInternAtom, align 8
  %71 = load ptr, ptr %9, align 8
  %72 = getelementptr inbounds [3 x ptr], ptr %18, i64 0, i64 2
  %73 = load ptr, ptr %72, align 16
  %74 = call i64 %70(ptr noundef %71, ptr noundef %73, i32 noundef 0)
  %75 = getelementptr inbounds [3 x i64], ptr %19, i64 0, i64 2
  store i64 %74, ptr %75, align 16
  %76 = getelementptr inbounds [3 x i64], ptr %19, i64 0, i64 0
  %77 = load i64, ptr %76, align 16
  %78 = load ptr, ptr %16, align 8
  %79 = getelementptr inbounds nuw %struct._XSettingsClient, ptr %78, i32 0, i32 9
  store i64 %77, ptr %79, align 8
  %80 = getelementptr inbounds [3 x i64], ptr %19, i64 0, i64 1
  %81 = load i64, ptr %80, align 8
  %82 = load ptr, ptr %16, align 8
  %83 = getelementptr inbounds nuw %struct._XSettingsClient, ptr %82, i32 0, i32 10
  store i64 %81, ptr %83, align 8
  %84 = getelementptr inbounds [3 x i64], ptr %19, i64 0, i64 2
  %85 = load i64, ptr %84, align 16
  %86 = load ptr, ptr %16, align 8
  %87 = getelementptr inbounds nuw %struct._XSettingsClient, ptr %86, i32 0, i32 8
  store i64 %85, ptr %87, align 8
  %88 = load ptr, ptr %9, align 8
  %89 = load ptr, ptr %9, align 8
  %90 = getelementptr inbounds nuw %struct.anon.0, ptr %89, i32 0, i32 35
  %91 = load ptr, ptr %90, align 8
  %92 = load i32, ptr %10, align 4
  %93 = sext i32 %92 to i64
  %94 = getelementptr inbounds %struct.Screen, ptr %91, i64 %93
  %95 = getelementptr inbounds nuw %struct.Screen, ptr %94, i32 0, i32 2
  %96 = load i64, ptr %95, align 8
  call void @add_events(ptr noundef %88, i64 noundef %96, i64 noundef 131072)
  %97 = load ptr, ptr %16, align 8
  %98 = getelementptr inbounds nuw %struct._XSettingsClient, ptr %97, i32 0, i32 3
  %99 = load ptr, ptr %98, align 8
  %100 = icmp ne ptr %99, null
  br i1 %100, label %101, label %117

101:                                              ; preds = %25
  %102 = load ptr, ptr %16, align 8
  %103 = getelementptr inbounds nuw %struct._XSettingsClient, ptr %102, i32 0, i32 3
  %104 = load ptr, ptr %103, align 8
  %105 = load ptr, ptr %9, align 8
  %106 = getelementptr inbounds nuw %struct.anon.0, ptr %105, i32 0, i32 35
  %107 = load ptr, ptr %106, align 8
  %108 = load i32, ptr %10, align 4
  %109 = sext i32 %108 to i64
  %110 = getelementptr inbounds %struct.Screen, ptr %107, i64 %109
  %111 = getelementptr inbounds nuw %struct.Screen, ptr %110, i32 0, i32 2
  %112 = load i64, ptr %111, align 8
  %113 = load ptr, ptr %16, align 8
  %114 = getelementptr inbounds nuw %struct._XSettingsClient, ptr %113, i32 0, i32 4
  %115 = load ptr, ptr %114, align 8
  %116 = call i32 %104(i64 noundef %112, i32 noundef 1, i64 noundef 131072, ptr noundef %115)
  br label %117

117:                                              ; preds = %101, %25
  %118 = load ptr, ptr %16, align 8
  call void @check_manager_window(ptr noundef %118)
  %119 = load ptr, ptr %16, align 8
  store ptr %119, ptr %8, align 8
  store i32 1, ptr %20, align 4
  br label %120

120:                                              ; preds = %117, %24
  call void @llvm.lifetime.end.p0(i64 24, ptr %19) #6
  call void @llvm.lifetime.end.p0(i64 24, ptr %18) #6
  call void @llvm.lifetime.end.p0(i64 256, ptr %17) #6
  call void @llvm.lifetime.end.p0(i64 8, ptr %16) #6
  %121 = load ptr, ptr %8, align 8
  ret ptr %121
}