; Function Attrs: nounwind uwtable
define hidden noundef ptr @xsettings_client_new_with_grab_funcs(ptr noundef %0, i32 noundef %1, ptr noundef %2, ptr noundef %3, ptr noundef %4, ptr noundef %5, ptr noundef %6) local_unnamed_addr #0 {
  %8 = alloca %struct.XWindowAttributes, align 8
  %9 = alloca [256 x i8], align 16
  call void @llvm.lifetime.start.p0(i64 256, ptr nonnull %9) #14
  %10 = tail call noalias dereferenceable_or_null(96) ptr @malloc(i64 noundef 96) #15
  %.not = icmp eq ptr %10, null
  br i1 %.not, label %48, label %11

11:                                               ; preds = %7
  store ptr %0, ptr %10, align 8
  %12 = getelementptr inbounds nuw i8, ptr %10, i64 8
  store i32 %1, ptr %12, align 8
  %13 = getelementptr inbounds nuw i8, ptr %10, i64 16
  store ptr %2, ptr %13, align 8
  %14 = getelementptr inbounds nuw i8, ptr %10, i64 24
  store ptr %3, ptr %14, align 8
  %15 = getelementptr inbounds nuw i8, ptr %10, i64 32
  store ptr %4, ptr %15, align 8
  %16 = getelementptr inbounds nuw i8, ptr %10, i64 40
  store ptr %5, ptr %16, align 8
  %17 = getelementptr inbounds nuw i8, ptr %10, i64 48
  store ptr %6, ptr %17, align 8
  %18 = getelementptr inbounds nuw i8, ptr %10, i64 56
  store i64 0, ptr %18, align 8
  %19 = getelementptr inbounds nuw i8, ptr %10, i64 88
  store ptr null, ptr %19, align 8
  %20 = call i32 (ptr, ptr, ...) @sprintf(ptr noundef nonnull dereferenceable(1) %9, ptr noundef nonnull dereferenceable(1) @.str, i32 noundef %1) #14
  %21 = load ptr, ptr @X11_XInternAtom, align 8
  %22 = call i64 %21(ptr noundef %0, ptr noundef nonnull %9, i32 noundef 0) #14
  %23 = load ptr, ptr @X11_XInternAtom, align 8
  %24 = call i64 %23(ptr noundef %0, ptr noundef nonnull @.str.1, i32 noundef 0) #14
  %25 = load ptr, ptr @X11_XInternAtom, align 8
  %26 = call i64 %25(ptr noundef %0, ptr noundef nonnull @.str.2, i32 noundef 0) #14
  %27 = getelementptr inbounds nuw i8, ptr %10, i64 72
  store i64 %22, ptr %27, align 8
  %28 = getelementptr inbounds nuw i8, ptr %10, i64 80
  store i64 %24, ptr %28, align 8
  %29 = getelementptr inbounds nuw i8, ptr %10, i64 64
  store i64 %26, ptr %29, align 8
  %30 = getelementptr inbounds nuw i8, ptr %0, i64 232
  %31 = load ptr, ptr %30, align 8
  %32 = sext i32 %1 to i64
  %33 = getelementptr inbounds %struct.Screen, ptr %31, i64 %32, i32 2
  %34 = load i64, ptr %33, align 8
  call void @llvm.lifetime.start.p0(i64 136, ptr nonnull %8) #14
  %35 = load ptr, ptr @X11_XGetWindowAttributes, align 8
  %36 = call i32 %35(ptr noundef %0, i64 noundef %34, ptr noundef nonnull %8) #14
  %37 = load ptr, ptr @X11_XSelectInput, align 8
  %38 = getelementptr inbounds nuw i8, ptr %8, i64 104
  %39 = load i64, ptr %38, align 8
  %40 = or i64 %39, 131072
  %41 = call i32 %37(ptr noundef %0, i64 noundef %34, i64 noundef %40) #14
  call void @llvm.lifetime.end.p0(i64 136, ptr nonnull %8) #14
  %.not39 = icmp eq ptr %3, null
  br i1 %.not39, label %47, label %42

42:                                               ; preds = %11
  %43 = load ptr, ptr %30, align 8
  %44 = getelementptr inbounds %struct.Screen, ptr %43, i64 %32, i32 2
  %45 = load i64, ptr %44, align 8
  %46 = call i32 %3(i64 noundef %45, i32 noundef 1, i64 noundef 131072, ptr noundef %4) #14
  br label %47

47:                                               ; preds = %42, %11
  call fastcc void @check_manager_window(ptr noundef nonnull %10)
  br label %48

48:                                               ; preds = %7, %47
  call void @llvm.lifetime.end.p0(i64 256, ptr nonnull %9) #14
  ret ptr %10
}